target datalayout = "e-m:e-p270:32:32-p271:32:32-p272:64:64-i64:64-i128:128-f80:128-n8:16:32:64-S128"
target triple = "x86_64-pc-linux-gnu"

%struct._packet_info = type { ptr, ptr, i32, i32, %struct.nstime_t, %struct.nstime_t, %struct.nstime_t, i8, ptr, ptr, ptr, ptr, %struct._address, %struct._address, %struct._address, %struct._address, %struct._address, %struct._address, i32, ptr, i8, [3 x i8], %struct.anon, i32, i32, i32, i32, ptr, i8, ptr, ptr, i16, i16, i32, i32, i16, i32, i32, ptr, ptr, ptr, i8, i8, i16, i16, i16, i32, i16, i16, ptr, ptr, ptr, ptr, ptr, i32, i32 }
%struct.nstime_t = type { i64, i32 }
%struct._address = type { i32, i32, ptr, ptr }
%struct.anon = type { i8, [3 x i8] }

@.str.702 = private unnamed_addr constant [7 x i8] c" -> %s\00", align 1

; Function Attrs: null_pointer_is_valid sspstrong uwtable
define internal i32 @aim_get_buddyname(ptr noundef %0, ptr noundef %1, ptr noundef %2, i32 noundef %3) #0 {
  %5 = alloca ptr, align 8
  %6 = alloca ptr, align 8
  %7 = alloca ptr, align 8
  %8 = alloca i32, align 4
  %9 = alloca i8, align 1
  store ptr %0, ptr %5, align 8
  store ptr %1, ptr %6, align 8
  store ptr %2, ptr %7, align 8
  store i32 %3, ptr %8, align 4
  call void @llvm.lifetime.start.p0(i64 1, ptr %9) #13
  %10 = load ptr, ptr %7, align 8
  %11 = load i32, ptr %8, align 4
  %12 = call zeroext i8 @tvb_get_uint8(ptr noundef %10, i32 noundef %11)
  store i8 %12, ptr %9, align 1
  %13 = load ptr, ptr %5, align 8
  %14 = load ptr, ptr %7, align 8
  %15 = load i32, ptr %8, align 4
  %16 = add i32 %15, 1
  %17 = load i8, ptr %9, align 1
  %18 = zext i8 %17 to i32
  %19 = call ptr @tvb_get_string_enc(ptr noundef %13, ptr noundef %14, i32 noundef %16, i32 noundef %18, i32 noundef 2)
  %20 = load ptr, ptr %6, align 8
  store ptr %19, ptr %20, align 8
  %21 = load i8, ptr %9, align 1
  %22 = zext i8 %21 to i32
  call void @llvm.lifetime.end.p0(i64 1, ptr %9) #13
  ret i32 %22
}

; Function Attrs: null_pointer_is_valid sspstrong uwtable
define internal i32 @dissect_aim_chat_outgoing_msg(ptr noundef %0, ptr noundef %1, ptr noundef %2) #0 {
  %4 = alloca ptr, align 8
  %5 = alloca ptr, align 8
  %6 = alloca ptr, align 8
  %7 = alloca ptr, align 8
  %8 = alloca ptr, align 8
  %9 = alloca i32, align 4
  store ptr %0, ptr %4, align 8
  store ptr %1, ptr %5, align 8
  store ptr %2, ptr %6, align 8
  call void @llvm.lifetime.start.p0(i64 8, ptr %7) #13
  call void @llvm.lifetime.start.p0(i64 8, ptr %8) #13
  call void @llvm.lifetime.start.p0(i64 4, ptr %9) #13
  %10 = load ptr, ptr %5, align 8
  %11 = getelementptr inbounds nuw %struct._packet_info, ptr %10, i32 0, i32 51
  %12 = load ptr, ptr %11, align 8
  %13 = call noalias ptr @wmem_alloc(ptr noundef %12, i64 noundef 1000) #17
  store ptr %13, ptr %8, align 8
  %14 = load ptr, ptr %5, align 8
  %15 = getelementptr inbounds nuw %struct._packet_info, ptr %14, i32 0, i32 51
  %16 = load ptr, ptr %15, align 8
  %17 = load ptr, ptr %4, align 8
  %18 = call i32 @aim_get_buddyname(ptr noundef %16, ptr noundef %7, ptr noundef %17, i32 noundef 30)
  store i32 %18, ptr %9, align 4
  %19 = load ptr, ptr %8, align 8
  %20 = load ptr, ptr %4, align 8
  %21 = load i32, ptr %9, align 4
  %22 = add i32 40, %21
  %23 = load ptr, ptr %4, align 8
  %24 = call i32 @tvb_reported_length(ptr noundef %23)
  %25 = sub i32 %24, 40
  %26 = load i32, ptr %9, align 4
  %27 = sub i32 %25, %26
  call void @aim_get_message(ptr noundef %19, ptr noundef %20, i32 noundef %22, i32 noundef %27)
  %28 = load ptr, ptr %5, align 8
  %29 = getelementptr inbounds nuw %struct._packet_info, ptr %28, i32 0, i32 1
  %30 = load ptr, ptr %29, align 8
  %31 = load ptr, ptr %8, align 8
  call void (ptr, i32, ptr, ...) @col_append_fstr(ptr noundef %30, i32 noundef 25, ptr noundef @.str.702, ptr noundef %31)
  %32 = load ptr, ptr %4, align 8
  %33 = call i32 @tvb_reported_length(ptr noundef %32)
  call void @llvm.lifetime.end.p0(i64 4, ptr %9) #13
  call void @llvm.lifetime.end.p0(i64 8, ptr %8) #13
  call void @llvm.lifetime.end.p0(i64 8, ptr %7) #13
  ret i32 %33
}